; Function Attrs: null_pointer_is_valid sspstrong uwtable
define internal void @bssgp_modify_bss_pfc_ack(ptr noundef %0, ptr noundef %1, ptr noundef initializes((384, 388)) %2, i32 noundef %3, i32 noundef %4) #1 {
  %6 = getelementptr inbounds nuw i8, ptr %2, i64 384
  store i32 1, ptr %6, align 8
  %7 = icmp sgt i32 %4, 0
  br i1 %7, label %8, label %14

8:                                                ; preds = %5
  %9 = tail call zeroext i16 @elem_telv(ptr noundef %0, ptr noundef %1, ptr noundef %2, i8 noundef zeroext 31, i32 noundef 3, i32 noundef 68, i32 noundef %3, i32 noundef %4, ptr noundef null)
  %.not = icmp eq i16 %9, 0
  br i1 %.not, label %14, label %10

10:                                               ; preds = %8
  %11 = zext i16 %9 to i32
  %12 = add i32 %3, %11
  %13 = sub nsw i32 %4, %11
  br label %17

14:                                               ; preds = %8, %5
  %15 = tail call ptr @get_gsm_a_msg_string(i32 noundef 3, i32 noundef 68)
  %16 = tail call ptr (ptr, ptr, ptr, ptr, i32, i32, ptr, ...) @proto_tree_add_expert_format(ptr noundef %1, ptr noundef %2, ptr noundef nonnull @ei_bssgp_missing_mandatory_element, ptr noundef %0, i32 noundef %3, i32 noundef 0, ptr noundef nonnull @.str.6, i32 noundef 31, ptr noundef %15, ptr noundef nonnull @.str.7)
  br label %17

17:                                               ; preds = %14, %10
  %.066 = phi i32 [ %12, %10 ], [ %3, %14 ]
  %.0 = phi i32 [ %13, %10 ], [ %4, %14 ]
  %18 = icmp sgt i32 %.0, 0
  br i1 %18, label %19, label %25

19:                                               ; preds = %17
  %20 = tail call zeroext i16 @elem_telv(ptr noundef %0, ptr noundef %1, ptr noundef %2, i8 noundef zeroext 40, i32 noundef 5, i32 noundef 56, i32 noundef %.066, i32 noundef %.0, ptr noundef null)
  %.not75 = icmp eq i16 %20, 0
  br i1 %.not75, label %25, label %21

21:                                               ; preds = %19
  %22 = zext i16 %20 to i32
  %23 = add i32 %.066, %22
  %24 = sub nsw i32 %.0, %22
  br label %28

25:                                               ; preds = %19, %17
  %26 = tail call ptr @get_gsm_a_msg_string(i32 noundef 5, i32 noundef 56)
  %27 = tail call ptr (ptr, ptr, ptr, ptr, i32, i32, ptr, ...) @proto_tree_add_expert_format(ptr noundef %1, ptr noundef %2, ptr noundef nonnull @ei_bssgp_missing_mandatory_element, ptr noundef %0, i32 noundef %.066, i32 noundef 0, ptr noundef nonnull @.str.6, i32 noundef 40, ptr noundef %26, ptr noundef nonnull @.str.7)
  br label %28

28:                                               ; preds = %25, %21
  %.167 = phi i32 [ %23, %21 ], [ %.066, %25 ]
  %.1 = phi i32 [ %24, %21 ], [ %.0, %25 ]
  %29 = icmp sgt i32 %.1, 0
  br i1 %29, label %30, label %36

30:                                               ; preds = %28
  %31 = tail call zeroext i16 @elem_telv(ptr noundef %0, ptr noundef %1, ptr noundef %2, i8 noundef zeroext 41, i32 noundef 13, i32 noundef 41, i32 noundef %.167, i32 noundef %.1, ptr noundef nonnull @.str.751)
  %.not76 = icmp eq i16 %31, 0
  br i1 %.not76, label %36, label %32

32:                                               ; preds = %30
  %33 = zext i16 %31 to i32
  %34 = add i32 %.167, %33
  %35 = sub nsw i32 %.1, %33
  br label %39

36:                                               ; preds = %30, %28
  %37 = tail call ptr @get_gsm_a_msg_string(i32 noundef 13, i32 noundef 41)
  %38 = tail call ptr (ptr, ptr, ptr, ptr, i32, i32, ptr, ...) @proto_tree_add_expert_format(ptr noundef %1, ptr noundef %2, ptr noundef nonnull @ei_bssgp_missing_mandatory_element, ptr noundef %0, i32 noundef %.167, i32 noundef 0, ptr noundef nonnull @.str.6, i32 noundef 41, ptr noundef %37, ptr noundef nonnull @.str.751)
  br label %39

39:                                               ; preds = %36, %32
  %.268 = phi i32 [ %34, %32 ], [ %.167, %36 ]
  %.2 = phi i32 [ %35, %32 ], [ %.1, %36 ]
  %40 = icmp sgt i32 %.2, 0
  br i1 %40, label %41, label %47

41:                                               ; preds = %39
  %42 = tail call zeroext i16 @elem_telv(ptr noundef %0, ptr noundef %1, ptr noundef %2, i8 noundef zeroext 58, i32 noundef 5, i32 noundef 48, i32 noundef %.268, i32 noundef %.2, ptr noundef null)
  %.not77 = icmp eq i16 %42, 0
  br i1 %.not77, label %47, label %43

43:                                               ; preds = %41
  %44 = zext i16 %42 to i32
  %45 = add i32 %.268, %44
  %46 = sub nsw i32 %.2, %44
  br label %50

47:                                               ; preds = %41, %39
  %48 = tail call ptr @get_gsm_a_msg_string(i32 noundef 5, i32 noundef 48)
  %49 = tail call ptr (ptr, ptr, ptr, ptr, i32, i32, ptr, ...) @proto_tree_add_expert_format(ptr noundef %1, ptr noundef %2, ptr noundef nonnull @ei_bssgp_missing_mandatory_element, ptr noundef %0, i32 noundef %.268, i32 noundef 0, ptr noundef nonnull @.str.6, i32 noundef 58, ptr noundef %48, ptr noundef nonnull @.str.7)
  br label %50

50:                                               ; preds = %47, %43
  %.369 = phi i32 [ %45, %43 ], [ %.268, %47 ]
  %.3 = phi i32 [ %46, %43 ], [ %.2, %47 ]
  %.not78 = icmp eq i32 %.3, 0
  br i1 %.not78, label %53, label %51

51:                                               ; preds = %50
  %52 = tail call ptr @proto_tree_add_expert(ptr noundef %1, ptr noundef %2, ptr noundef nonnull @ei_bssgp_extraneous_data, ptr noundef %0, i32 noundef %.369, i32 noundef %.3)
  br label %53

53:                                               ; preds = %51, %50
  ret void
}